; Function Attrs: nounwind uwtable
define internal void @rgbtest_fill_picture_complement(ptr noundef readonly captures(none) %0, ptr noundef readonly captures(none) %1) #1 {
  %3 = getelementptr inbounds nuw i8, ptr %1, i64 104
  %4 = load i32, ptr %3, align 8, !tbaa !67
  %5 = getelementptr inbounds nuw i8, ptr %1, i64 108
  %6 = load i32, ptr %5, align 4, !tbaa !68
  %7 = icmp sgt i32 %6, 0
  br i1 %7, label %.preheader.lr.ph, label %._crit_edge53

.preheader.lr.ph:                                 ; preds = %2
  %8 = getelementptr inbounds nuw i8, ptr %0, i64 72
  %9 = load ptr, ptr %8, align 8, !tbaa !4
  %10 = icmp sgt i32 %4, 0
  %11 = getelementptr inbounds nuw i8, ptr %9, i64 320
  %12 = shl nuw nsw i32 %6, 1
  %13 = mul nuw nsw i32 %6, 3
  %14 = shl nsw i32 %6, 2
  %15 = mul nuw nsw i32 %6, 5
  %16 = getelementptr inbounds nuw i8, ptr %1, i64 64
  %17 = getelementptr inbounds nuw i8, ptr %0, i64 56
  %18 = getelementptr inbounds nuw i8, ptr %9, i64 312
  br i1 %10, label %.preheader.us, label %._crit_edge53

.preheader.us:                                    ; preds = %.preheader.lr.ph, %._crit_edge.us
  %.04451.us = phi i32 [ %33, %._crit_edge.us ], [ 0, %.preheader.lr.ph ]
  %19 = mul nuw nsw i32 %.04451.us, 6
  %20 = icmp slt i32 %19, %6
  %21 = icmp samesign ult i32 %19, %12
  %22 = icmp samesign ult i32 %19, %13
  %23 = icmp slt i32 %19, %14
  %24 = icmp samesign ult i32 %19, %15
  br i1 %20, label %.lr.ph.split.us.us, label %.lr.ph.split.us57.preheader

.lr.ph.split.us57.preheader:                      ; preds = %.preheader.us
  %brmerge = select i1 %21, i1 true, i1 %22
  %brmerge58 = select i1 %brmerge, i1 true, i1 %23
  br label %.lr.ph.split.us57

.lr.ph.split.us57:                                ; preds = %.lr.ph.split.us57.preheader, %.lr.ph.split.us57
  %.04350.us54 = phi i32 [ %32, %.lr.ph.split.us57 ], [ 0, %.lr.ph.split.us57.preheader ]
  %25 = load i32, ptr %11, align 8, !tbaa !108
  %spec.select.us55 = tail call i32 @llvm.smax.i32(i32 %25, i32 8)
  %26 = shl i32 %.04350.us54, %spec.select.us55
  %27 = sdiv i32 %26, %4
  %.mux = select i1 %22, i32 0, i32 %27
  %.mux.mux = select i1 %21, i32 %27, i32 %.mux
  %..us = select i1 %24, i32 0, i32 %27
  %.49.us = select i1 %24, i32 %27, i32 0
  %.mux59 = select i1 %23, i32 %27, i32 %..us
  %.042.us = select i1 %brmerge, i32 0, i32 %.mux59
  %.mux60 = select i1 %23, i32 0, i32 %..us
  %.041.us = select i1 %brmerge, i32 %27, i32 %.mux60
  %.0.us = select i1 %brmerge58, i32 %.mux.mux, i32 %.49.us
  %28 = load ptr, ptr %17, align 8, !tbaa !30
  %29 = load ptr, ptr %28, align 8, !tbaa !31
  %30 = getelementptr inbounds nuw i8, ptr %29, i64 36
  %31 = load i32, ptr %30, align 4, !tbaa !61
  tail call fastcc void @rgbtest_put_pixel(ptr noundef %1, ptr noundef nonnull %16, i32 noundef %.04350.us54, i32 noundef %.04451.us, i32 noundef %.042.us, i32 noundef %.041.us, i32 noundef %.0.us, i32 noundef %27, i32 noundef %31, ptr noundef nonnull %18)
  %32 = add nuw nsw i32 %.04350.us54, 1
  %exitcond.not = icmp eq i32 %32, %4
  br i1 %exitcond.not, label %._crit_edge.us, label %.lr.ph.split.us57, !llvm.loop !109

._crit_edge.us:                                   ; preds = %.lr.ph.split.us57, %.lr.ph.split.us.us
  %33 = add nuw nsw i32 %.04451.us, 1
  %exitcond64.not = icmp eq i32 %33, %6
  br i1 %exitcond64.not, label %._crit_edge53, label %.preheader.us, !llvm.loop !110

.lr.ph.split.us.us:                               ; preds = %.preheader.us, %.lr.ph.split.us.us
  %.04350.us.us = phi i32 [ %41, %.lr.ph.split.us.us ], [ 0, %.preheader.us ]
  %34 = load i32, ptr %11, align 8, !tbaa !108
  %spec.select.us.us = tail call i32 @llvm.smax.i32(i32 %34, i32 8)
  %35 = shl i32 %.04350.us.us, %spec.select.us.us
  %36 = sdiv i32 %35, %4
  %37 = load ptr, ptr %17, align 8, !tbaa !30
  %38 = load ptr, ptr %37, align 8, !tbaa !31
  %39 = getelementptr inbounds nuw i8, ptr %38, i64 36
  %40 = load i32, ptr %39, align 4, !tbaa !61
  tail call fastcc void @rgbtest_put_pixel(ptr noundef nonnull %1, ptr noundef nonnull %16, i32 noundef %.04350.us.us, i32 noundef %.04451.us, i32 noundef %36, i32 noundef 0, i32 noundef 0, i32 noundef %36, i32 noundef %40, ptr noundef nonnull %18)
  %41 = add nuw nsw i32 %.04350.us.us, 1
  %exitcond63.not = icmp eq i32 %41, %4
  br i1 %exitcond63.not, label %._crit_edge.us, label %.lr.ph.split.us.us, !llvm.loop !109

._crit_edge53:                                    ; preds = %._crit_edge.us, %.preheader.lr.ph, %2
  ret void
}